; Function Attrs: mustprogress nounwind uwtable
define dso_local noundef ptr @_ZN4llvm18UpgradeBitCastExprEjPNS_8ConstantEPNS_4TypeE(i32 noundef %0, ptr noundef %1, ptr noundef %2) local_unnamed_addr #0 {
  %.not = icmp eq i32 %0, 49
  br i1 %.not, label %4, label %42

4:                                                ; preds = %3
  %5 = getelementptr inbounds nuw i8, ptr %1, i64 8
  %6 = load ptr, ptr %5, align 8
  %7 = getelementptr inbounds nuw i8, ptr %6, i64 8
  %8 = load i32, ptr %7, align 8
  %9 = and i32 %8, 255
  %10 = add nsw i32 %9, -17
  %spec.select.i.i.i = icmp ult i32 %10, 2
  br i1 %spec.select.i.i.i, label %11, label %_ZNK4llvm4Type18isPtrOrPtrVectorTyEv.exit

11:                                               ; preds = %4
  %12 = getelementptr inbounds nuw i8, ptr %6, i64 16
  %13 = load ptr, ptr %12, align 8
  %14 = load ptr, ptr %13, align 8
  %.phi.trans.insert.i = getelementptr inbounds nuw i8, ptr %14, i64 8
  %.pre.i = load i32, ptr %.phi.trans.insert.i, align 8
  %.pre1.i = and i32 %.pre.i, 255
  br label %_ZNK4llvm4Type18isPtrOrPtrVectorTyEv.exit

_ZNK4llvm4Type18isPtrOrPtrVectorTyEv.exit:        ; preds = %4, %11
  %.pre-phi.i = phi i32 [ %9, %4 ], [ %.pre1.i, %11 ]
  %15 = icmp eq i32 %.pre-phi.i, 14
  br i1 %15, label %16, label %42

16:                                               ; preds = %_ZNK4llvm4Type18isPtrOrPtrVectorTyEv.exit
  %17 = getelementptr inbounds nuw i8, ptr %2, i64 8
  %18 = load i32, ptr %17, align 8
  %19 = and i32 %18, 255
  %20 = add nsw i32 %19, -17
  %spec.select.i.i.i12 = icmp ult i32 %20, 2
  br i1 %spec.select.i.i.i12, label %21, label %_ZNK4llvm4Type18isPtrOrPtrVectorTyEv.exit17

21:                                               ; preds = %16
  %22 = getelementptr inbounds nuw i8, ptr %2, i64 16
  %23 = load ptr, ptr %22, align 8
  %24 = load ptr, ptr %23, align 8
  %.phi.trans.insert.i14 = getelementptr inbounds nuw i8, ptr %24, i64 8
  %.pre.i15 = load i32, ptr %.phi.trans.insert.i14, align 8
  %.pre1.i16 = and i32 %.pre.i15, 255
  br label %_ZNK4llvm4Type18isPtrOrPtrVectorTyEv.exit17

_ZNK4llvm4Type18isPtrOrPtrVectorTyEv.exit17:      ; preds = %16, %21
  %.pre-phi.i13 = phi i32 [ %19, %16 ], [ %.pre1.i16, %21 ]
  %25 = icmp eq i32 %.pre-phi.i13, 14
  br i1 %25, label %26, label %42

26:                                               ; preds = %_ZNK4llvm4Type18isPtrOrPtrVectorTyEv.exit17
  br i1 %spec.select.i.i.i, label %27, label %_ZNK4llvm4Type22getPointerAddressSpaceEv.exit

27:                                               ; preds = %26
  %28 = getelementptr inbounds nuw i8, ptr %6, i64 16
  %29 = load ptr, ptr %28, align 8
  %30 = load ptr, ptr %29, align 8
  %.phi.trans.insert.i19 = getelementptr inbounds nuw i8, ptr %30, i64 8
  %.pre.i20 = load i32, ptr %.phi.trans.insert.i19, align 8
  br label %_ZNK4llvm4Type22getPointerAddressSpaceEv.exit

_ZNK4llvm4Type22getPointerAddressSpaceEv.exit:    ; preds = %26, %27
  %31 = phi i32 [ %.pre.i20, %27 ], [ %8, %26 ]
  br i1 %spec.select.i.i.i12, label %32, label %_ZNK4llvm4Type22getPointerAddressSpaceEv.exit24

32:                                               ; preds = %_ZNK4llvm4Type22getPointerAddressSpaceEv.exit
  %33 = getelementptr inbounds nuw i8, ptr %2, i64 16
  %34 = load ptr, ptr %33, align 8
  %35 = load ptr, ptr %34, align 8
  %.phi.trans.insert.i22 = getelementptr inbounds nuw i8, ptr %35, i64 8
  %.pre.i23 = load i32, ptr %.phi.trans.insert.i22, align 8
  br label %_ZNK4llvm4Type22getPointerAddressSpaceEv.exit24

_ZNK4llvm4Type22getPointerAddressSpaceEv.exit24:  ; preds = %_ZNK4llvm4Type22getPointerAddressSpaceEv.exit, %32
  %36 = phi i32 [ %.pre.i23, %32 ], [ %18, %_ZNK4llvm4Type22getPointerAddressSpaceEv.exit ]
  %.not11.unshifted = xor i32 %36, %31
  %.not11 = icmp ult i32 %.not11.unshifted, 256
  br i1 %.not11, label %42, label %37

37:                                               ; preds = %_ZNK4llvm4Type22getPointerAddressSpaceEv.exit24
  %38 = tail call noundef nonnull align 8 dereferenceable(8) ptr @_ZNK4llvm5Value10getContextEv(ptr noundef nonnull align 8 dereferenceable(24) %1) #20
  %39 = tail call noundef ptr @_ZN4llvm4Type10getInt64TyERNS_11LLVMContextE(ptr noundef nonnull align 8 dereferenceable(8) %38) #20
  %40 = tail call noundef ptr @_ZN4llvm12ConstantExpr11getPtrToIntEPNS_8ConstantEPNS_4TypeEb(ptr noundef nonnull %1, ptr noundef %39, i1 noundef zeroext false) #20
  %41 = tail call noundef ptr @_ZN4llvm12ConstantExpr11getIntToPtrEPNS_8ConstantEPNS_4TypeEb(ptr noundef %40, ptr noundef nonnull %2, i1 noundef zeroext false) #20
  br label %42

42:                                               ; preds = %_ZNK4llvm4Type18isPtrOrPtrVectorTyEv.exit, %_ZNK4llvm4Type18isPtrOrPtrVectorTyEv.exit17, %_ZNK4llvm4Type22getPointerAddressSpaceEv.exit24, %3, %37
  %.0 = phi ptr [ %41, %37 ], [ null, %3 ], [ null, %_ZNK4llvm4Type22getPointerAddressSpaceEv.exit24 ], [ null, %_ZNK4llvm4Type18isPtrOrPtrVectorTyEv.exit17 ], [ null, %_ZNK4llvm4Type18isPtrOrPtrVectorTyEv.exit ]
  ret ptr %.0
}